; Function Attrs: nounwind uwtable
define i32 @Gia_ManUnivTfo_rec(ptr noundef readonly captures(none) %0, i32 noundef %1, ptr noundef %2, ptr noundef %3) local_unnamed_addr #0 {
  %5 = getelementptr i8, ptr %0, i64 176
  %.val38 = load i32, ptr %5, align 8, !tbaa !201
  %6 = getelementptr i8, ptr %0, i64 616
  %.val39 = load ptr, ptr %6, align 8, !tbaa !202
  %7 = sext i32 %1 to i64
  %8 = getelementptr inbounds i32, ptr %.val39, i64 %7
  %9 = load i32, ptr %8, align 4, !tbaa !31
  %.not = icmp eq i32 %9, %.val38
  br i1 %.not, label %.critedge, label %10

10:                                               ; preds = %4
  store i32 %.val38, ptr %8, align 4, !tbaa !31
  %.not31 = icmp eq ptr %2, null
  br i1 %.not31, label %49, label %11

11:                                               ; preds = %10
  %12 = getelementptr i8, ptr %0, i64 32
  %.val35 = load ptr, ptr %12, align 8, !tbaa !3
  %13 = getelementptr inbounds %struct.Gia_Obj_t_, ptr %.val35, i64 %7
  %.val37 = load i64, ptr %13, align 4
  %14 = and i64 %.val37, 2147483648
  %.not.i = icmp eq i64 %14, 0
  %15 = and i64 %.val37, 536870911
  %16 = icmp eq i64 %15, 536870911
  %narrow.i.not = or i1 %.not.i, %16
  br i1 %narrow.i.not, label %49, label %17

17:                                               ; preds = %11
  %18 = getelementptr inbounds nuw i8, ptr %2, i64 4
  %19 = load i32, ptr %18, align 4, !tbaa !28
  %20 = load i32, ptr %2, align 8, !tbaa !29
  %21 = icmp eq i32 %19, %20
  br i1 %21, label %22, label %.Vec_IntGrow.exit10_crit_edge.i

.Vec_IntGrow.exit10_crit_edge.i:                  ; preds = %17
  %.phi.trans.insert.i = getelementptr inbounds nuw i8, ptr %2, i64 8
  %.pre.i = load ptr, ptr %.phi.trans.insert.i, align 8, !tbaa !30
  br label %Vec_IntPush.exit

22:                                               ; preds = %17
  %23 = icmp slt i32 %19, 16
  br i1 %23, label %24, label %32

24:                                               ; preds = %22
  %25 = getelementptr inbounds nuw i8, ptr %2, i64 8
  %26 = load ptr, ptr %25, align 8, !tbaa !30
  %.not9.i.i = icmp eq ptr %26, null
  br i1 %.not9.i.i, label %29, label %27

27:                                               ; preds = %24
  %28 = tail call dereferenceable_or_null(64) ptr @realloc(ptr noundef nonnull %26, i64 noundef 64) #30
  br label %Vec_IntGrow.exit.i

29:                                               ; preds = %24
  %30 = tail call noalias dereferenceable_or_null(64) ptr @malloc(i64 noundef 64) #31
  br label %Vec_IntGrow.exit.i

Vec_IntGrow.exit.i:                               ; preds = %29, %27
  %31 = phi ptr [ %28, %27 ], [ %30, %29 ]
  store ptr %31, ptr %25, align 8, !tbaa !30
  store i32 16, ptr %2, align 8, !tbaa !29
  br label %Vec_IntPush.exit

32:                                               ; preds = %22
  %33 = shl nuw nsw i32 %19, 1
  %34 = getelementptr inbounds nuw i8, ptr %2, i64 8
  %35 = load ptr, ptr %34, align 8, !tbaa !30
  %.not9.i9.i = icmp eq ptr %35, null
  %36 = zext nneg i32 %33 to i64
  %37 = shl nuw nsw i64 %36, 2
  br i1 %.not9.i9.i, label %40, label %38

38:                                               ; preds = %32
  %39 = tail call ptr @realloc(ptr noundef nonnull %35, i64 noundef %37) #30
  br label %42

40:                                               ; preds = %32
  %41 = tail call noalias ptr @malloc(i64 noundef %37) #31
  br label %42

42:                                               ; preds = %40, %38
  %43 = phi ptr [ %39, %38 ], [ %41, %40 ]
  store ptr %43, ptr %34, align 8, !tbaa !30
  store i32 %33, ptr %2, align 8, !tbaa !29
  br label %Vec_IntPush.exit

Vec_IntPush.exit:                                 ; preds = %.Vec_IntGrow.exit10_crit_edge.i, %Vec_IntGrow.exit.i, %42
  %44 = phi ptr [ %.pre.i, %.Vec_IntGrow.exit10_crit_edge.i ], [ %43, %42 ], [ %31, %Vec_IntGrow.exit.i ]
  %45 = load i32, ptr %18, align 4, !tbaa !28
  %46 = add nsw i32 %45, 1
  store i32 %46, ptr %18, align 4, !tbaa !28
  %47 = sext i32 %45 to i64
  %48 = getelementptr inbounds i32, ptr %44, i64 %47
  store i32 %1, ptr %48, align 4, !tbaa !31
  br label %49

49:                                               ; preds = %Vec_IntPush.exit, %11, %10
  %.not33 = icmp eq ptr %3, null
  br i1 %.not33, label %88, label %50

50:                                               ; preds = %49
  %51 = getelementptr i8, ptr %0, i64 32
  %.val = load ptr, ptr %51, align 8, !tbaa !3
  %52 = getelementptr inbounds %struct.Gia_Obj_t_, ptr %.val, i64 %7
  %.val36 = load i64, ptr %52, align 4
  %53 = and i64 %.val36, 2147483648
  %.not.i44 = icmp eq i64 %53, 0
  %54 = and i64 %.val36, 536870911
  %55 = icmp eq i64 %54, 536870911
  %narrow.i45.not = or i1 %.not.i44, %55
  br i1 %narrow.i45.not, label %88, label %56

56:                                               ; preds = %50
  %57 = getelementptr inbounds nuw i8, ptr %3, i64 4
  %58 = load i32, ptr %57, align 4, !tbaa !28
  %59 = load i32, ptr %3, align 8, !tbaa !29
  %60 = icmp eq i32 %58, %59
  br i1 %60, label %61, label %.Vec_IntGrow.exit10_crit_edge.i46

.Vec_IntGrow.exit10_crit_edge.i46:                ; preds = %56
  %.phi.trans.insert.i47 = getelementptr inbounds nuw i8, ptr %3, i64 8
  %.pre.i48 = load ptr, ptr %.phi.trans.insert.i47, align 8, !tbaa !30
  br label %Vec_IntPush.exit52

61:                                               ; preds = %56
  %62 = icmp slt i32 %58, 16
  br i1 %62, label %63, label %71

63:                                               ; preds = %61
  %64 = getelementptr inbounds nuw i8, ptr %3, i64 8
  %65 = load ptr, ptr %64, align 8, !tbaa !30
  %.not9.i.i50 = icmp eq ptr %65, null
  br i1 %.not9.i.i50, label %68, label %66

66:                                               ; preds = %63
  %67 = tail call dereferenceable_or_null(64) ptr @realloc(ptr noundef nonnull %65, i64 noundef 64) #30
  br label %Vec_IntGrow.exit.i51

68:                                               ; preds = %63
  %69 = tail call noalias dereferenceable_or_null(64) ptr @malloc(i64 noundef 64) #31
  br label %Vec_IntGrow.exit.i51

Vec_IntGrow.exit.i51:                             ; preds = %68, %66
  %70 = phi ptr [ %67, %66 ], [ %69, %68 ]
  store ptr %70, ptr %64, align 8, !tbaa !30
  store i32 16, ptr %3, align 8, !tbaa !29
  br label %Vec_IntPush.exit52

71:                                               ; preds = %61
  %72 = shl nuw nsw i32 %58, 1
  %73 = getelementptr inbounds nuw i8, ptr %3, i64 8
  %74 = load ptr, ptr %73, align 8, !tbaa !30
  %.not9.i9.i49 = icmp eq ptr %74, null
  %75 = zext nneg i32 %72 to i64
  %76 = shl nuw nsw i64 %75, 2
  br i1 %.not9.i9.i49, label %79, label %77

77:                                               ; preds = %71
  %78 = tail call ptr @realloc(ptr noundef nonnull %74, i64 noundef %76) #30
  br label %81

79:                                               ; preds = %71
  %80 = tail call noalias ptr @malloc(i64 noundef %76) #31
  br label %81

81:                                               ; preds = %79, %77
  %82 = phi ptr [ %78, %77 ], [ %80, %79 ]
  store ptr %82, ptr %73, align 8, !tbaa !30
  store i32 %72, ptr %3, align 8, !tbaa !29
  br label %Vec_IntPush.exit52

Vec_IntPush.exit52:                               ; preds = %.Vec_IntGrow.exit10_crit_edge.i46, %Vec_IntGrow.exit.i51, %81
  %83 = phi ptr [ %.pre.i48, %.Vec_IntGrow.exit10_crit_edge.i46 ], [ %82, %81 ], [ %70, %Vec_IntGrow.exit.i51 ]
  %84 = load i32, ptr %57, align 4, !tbaa !28
  %85 = add nsw i32 %84, 1
  store i32 %85, ptr %57, align 4, !tbaa !28
  %86 = sext i32 %84 to i64
  %87 = getelementptr inbounds i32, ptr %83, i64 %86
  store i32 %1, ptr %87, align 4, !tbaa !31
  br label %88

88:                                               ; preds = %Vec_IntPush.exit52, %50, %49
  %89 = getelementptr i8, ptr %0, i64 248
  %.val4255 = load ptr, ptr %89, align 8, !tbaa !203
  %90 = getelementptr i8, ptr %.val4255, i64 8
  %.val42.val56 = load ptr, ptr %90, align 8, !tbaa !30
  %91 = getelementptr inbounds i32, ptr %.val42.val56, i64 %7
  %92 = load i32, ptr %91, align 4, !tbaa !31
  %93 = icmp sgt i32 %92, 0
  br i1 %93, label %.lr.ph, label %.critedge

.lr.ph:                                           ; preds = %88
  %94 = getelementptr i8, ptr %0, i64 256
  br label %95

95:                                               ; preds = %.lr.ph, %95
  %.058 = phi i32 [ 1, %.lr.ph ], [ %104, %95 ]
  %.02857 = phi i32 [ 0, %.lr.ph ], [ %105, %95 ]
  %.val43 = load ptr, ptr %94, align 8, !tbaa !204
  %96 = getelementptr i8, ptr %.val43, i64 8
  %.val43.val = load ptr, ptr %96, align 8, !tbaa !30
  %97 = getelementptr inbounds i32, ptr %.val43.val, i64 %7
  %98 = load i32, ptr %97, align 4, !tbaa !31
  %99 = add nsw i32 %98, %.02857
  %100 = sext i32 %99 to i64
  %101 = getelementptr inbounds i32, ptr %.val43.val, i64 %100
  %102 = load i32, ptr %101, align 4, !tbaa !31
  %103 = tail call i32 @Gia_ManUnivTfo_rec(ptr noundef nonnull %0, i32 noundef %102, ptr noundef %2, ptr noundef %3)
  %104 = add nsw i32 %103, %.058
  %105 = add nuw nsw i32 %.02857, 1
  %.val42 = load ptr, ptr %89, align 8, !tbaa !203
  %106 = getelementptr i8, ptr %.val42, i64 8
  %.val42.val = load ptr, ptr %106, align 8, !tbaa !30
  %107 = getelementptr inbounds i32, ptr %.val42.val, i64 %7
  %108 = load i32, ptr %107, align 4, !tbaa !31
  %109 = icmp slt i32 %105, %108
  br i1 %109, label %95, label %.critedge, !llvm.loop !205

.critedge:                                        ; preds = %95, %88, %4
  %.027 = phi i32 [ 0, %4 ], [ 1, %88 ], [ %104, %95 ]
  ret i32 %.027
}